--- !tapi-tbd
tbd-version:     4
targets:         [ arm64-ios, arm64e-ios ]
uuids:
  - target:          arm64-ios
    value:           E2C3D627-A105-345B-A3C1-D36ADD68A93A
  - target:          arm64e-ios
    value:           229599D3-6D46-30EB-AC02-78D9F313A175
install-name:    '/usr/lib/libIOACIPCBB.dylib'
exports:
  - targets:         [ arm64-ios, arm64e-ios ]
    symbols:         [ __ZN14IOACIPCBBClass13mapUserMemoryEPvjPy, __ZN14IOACIPCBBClass13timesyncAsyncEjjPvjPFvS0_iS0_ES0_, 
                       __ZN14IOACIPCBBClass14mapIndexArraysEPvj, __ZN14IOACIPCBBClass15readIndexArraysEv, 
                       __ZN14IOACIPCBBClass15unmapUserMemoryEPv, __ZN14IOACIPCBBClass16enableRingEventsEU13block_pointerFvvE, 
                       __ZN14IOACIPCBBClass16unmapIndexArraysEv, __ZN14IOACIPCBBClass17registerTimeEventEjPFvPviPS0_jES0_, 
                       __ZN14IOACIPCBBClass17updateIndexArraysEPK30AppleConvergedIPCBBIndexArrays, 
                       __ZN14IOACIPCBBClass19deregisterTimeEventEjPFvPviES0_, __ZN14IOACIPCBBClass22notificationDispatcherEjPv, 
                       __ZN14IOACIPCBBClass8openRingEj27AppleConvergedIPCBBRingTypeP26AppleConvergedIPCBBRTIRing, 
                       __ZN14IOACIPCBBClass9closeRingEj27AppleConvergedIPCBBRingType, 
                       __ZN14IOACIPCBBClassD0Ev, __ZN14IOACIPCBBClassD1Ev, __ZN14IOACIPCBBClassD2Ev, 
                       __ZN21IOACIPCBBControlClass18hostSleepEntryExitEb, __ZTI14IOACIPCBBClass, 
                       __ZTS14IOACIPCBBClass, __ZTV14IOACIPCBBClass ]
...
