--- !tapi-tbd
tbd-version:     4
targets:         [ armv7-ios, armv7s-ios, arm64-ios, arm64e-ios ]
uuids:
  - target:          armv7-ios
    value:           00000000-0000-0000-0000-000000000000
  - target:          armv7s-ios
    value:           00000000-0000-0000-0000-000000000000
  - target:          arm64-ios
    value:           AE713687-B7F6-3432-816D-6F6766575036
  - target:          arm64e-ios
    value:           B1454852-03E7-3577-953E-645DDD352B13
install-name:    '/System/Library/PrivateFrameworks/AppleDepth.framework/AppleDepth'
exports:
  - targets:         [ arm64-ios, arm64e-ios ]
    symbols:         [ __Z11dumpTextureNSt3__112basic_stringIcNS_11char_traitsIcEENS_9allocatorIcEEEEPU21objcproto10MTLTexture11objc_object, 
                       __Z13ADMLModelPathP8NSStringb, __Z16dumpRawImageFileNSt3__112basic_stringIcNS_11char_traitsIcEENS_9allocatorIcEEEEPfm, 
                       __Z16dumpRawImageFileNSt3__112basic_stringIcNS_11char_traitsIcEENS_9allocatorIcEEEEPhm, 
                       __Z16dumpRawImageFileNSt3__112basic_stringIcNS_11char_traitsIcEENS_9allocatorIcEEEEPtm, 
                       __Z17calibrationAttachP10__CVBufferPK14__CFDictionary, __Z17getMTLPixelFormatj, 
                       __Z25calibrationFromAttachmentP10__CVBuffer, __ZN10appledepth16JasperPointCloud13initByCloningERKS0_Pv, 
                       __ZN10appledepth16JasperPointCloud13initByMergingEmPPKS0_Pv, 
                       __ZN10appledepth16JasperPointCloud13replacePointsEmmRKS0_m, 
                       __ZN10appledepth16JasperPointCloud14prepareStorageEPvmm, __ZN10appledepth16JasperPointCloud21initByApplyingFiltersEPKS0_15ADSpotsEchoModefffff, 
                       __ZN10appledepth16JasperPointCloud23lengthFromStorageBufferEPvm, 
                       __ZN10appledepth16JasperPointCloud29requiredStorageBytesForLengthEm, 
                       __ZN10appledepth16JasperPointCloud32initWithDictionaryRepresentationEPK14__CFDictionaryPv, 
                       __ZN10appledepth16JasperPointCloud32makeWithDictionaryRepresentationEPK14__CFDictionary, 
                       __ZN10appledepth16JasperPointCloud4initEmPv, __ZN10appledepth16JasperPointCloud5mergeEmPPKS0_Pv, 
                       __ZN10appledepth16JasperPointCloud5resetEv, __ZN10appledepth16JasperPointCloud6resizeEm, 
                       __ZN10appledepth16JasperPointCloud7blackenEv, __ZN10appledepth16JasperPointCloudC1EOS0_, 
                       __ZN10appledepth16JasperPointCloudC1EmPv, __ZN10appledepth16JasperPointCloudC1Ev, 
                       __ZN10appledepth16JasperPointCloudC2EOS0_, __ZN10appledepth16JasperPointCloudC2EmPv, 
                       __ZN10appledepth16JasperPointCloudC2Ev, __ZN10appledepth16JasperPointCloudD1Ev, 
                       __ZN10appledepth16JasperPointCloudD2Ev, __ZN13ADCommonUtils16extrinsicsToFileEPKc13simd_float4x3, 
                       __ZN13ADCommonUtils18extrinsicsFromFileEPKc, __ZN13ADCommonUtils22matrixForImageRotationE10ADRotation, 
                       __ZN16PixelBufferUtils13asPixelBufferEmmjPv, __ZN16PixelBufferUtils13forEveryPixelEP10__CVBufferS1_U13block_pointerFvPvjS2_jE, 
                       __ZN16PixelBufferUtils13forEveryPixelEP10__CVBufferU13block_pointerFvPvjE, 
                       __ZN16PixelBufferUtils14asVImageBufferEP10__CVBuffer, __ZN16PixelBufferUtils14asVImageBufferEP10__CVBufferm, 
                       __ZN16PixelBufferUtils15copyPixelBufferEP10__CVBufferS1_, 
                       __ZN16PixelBufferUtils17createPixelBufferE6CGSizejb, __ZN16PixelBufferUtils17createPixelBufferEmmjb, 
                       __ZN16PixelBufferUtils17errorsPixelBufferEP10__CVBufferS1_, 
                       __ZN16PixelBufferUtils17errorsPixelBufferEP10__CVBufferS1_bi, 
                       __ZN16PixelBufferUtils17rotatePixelBufferEP10__CVBufferS1_i, 
                       __ZN16PixelBufferUtils18releasePixelBufferEPP10__CVBuffer, 
                       __ZN16PixelBufferUtils19inPlaceColorScalingEP10__CVBufferffb, 
                       __ZN16PixelBufferUtils20countDifferentPixelsEP10__CVBufferS1_ff, 
                       __ZN16PixelBufferUtils20pixelBufferToCGImageEP10__CVBuffer, 
                       __ZN16PixelBufferUtils20pixelBufferToRawFileEPKcP10__CVBuffer, 
                       __ZN16PixelBufferUtils21createPixelBufferCopyEP10__CVBuffer, 
                       __ZN16PixelBufferUtils22pixelBufferFromCGImageEP7CGImage, 
                       __ZN16PixelBufferUtils22pixelBufferFromRawFileEPKcmmj, __ZN16PixelBufferUtils22pixelBufferToImageFileEPKcP10__CVBufferPK10__CFString, 
                       __ZN16PixelBufferUtils22savePlyFromDepthBufferEP10__CVBufferPKcf7CGPointfffbb, 
                       __ZN16PixelBufferUtils23cropAndScalePixelBufferEP10__CVBufferS1_6CGRect, 
                       __ZN16PixelBufferUtils23pixelSizeForPixelFormatEjm, __ZN16PixelBufferUtils24convertPixelBufferFormatEP10__CVBufferS1_, 
                       __ZN16PixelBufferUtils24createRotatedPixelBufferEP10__CVBufferi, 
                       __ZN16PixelBufferUtils24pixelBufferFromImageFileEPKc, __ZN16PixelBufferUtils24planeCountForPixelFormatEj, 
                       __ZN16PixelBufferUtils25colorizedDepthPixelBufferEP10__CVBufferbffbPfS1_, 
                       __ZN16PixelBufferUtils27rotationBetweenOrientationsE26CGImagePropertyOrientationS0_, 
                       __ZN16PixelBufferUtils29createPixelBufferWithSameSizeEP10__CVBufferjb, 
                       __ZN16PixelBufferUtils31createColorizedDepthPixelBufferEP10__CVBufferbffbPf, 
                       __ZN16PixelBufferUtils32componentsPerPixelForPixelFormatEjm, 
                       __ZN16PixelBufferUtils32createConvertedPixelBufferFormatEP10__CVBufferj, 
                       __ZN16PixelBufferUtils33createCroppedAndScaledPixelBufferEP10__CVBuffer6CGRect6CGSize, 
                       __ZN16PixelBufferUtils33verticalSubsamplingForPixelFormatEjm, 
                       __ZN16PixelBufferUtils35horizontalSubsamplingForPixelFormatEjm, 
                       __ZN16PixelBufferUtils44rotationAngleAndMirroringFromExifOrientationE26CGImagePropertyOrientationPb, 
                       __ZNK10appledepth16JasperPointCloud11confidencesEv, __ZNK10appledepth16JasperPointCloud11intensitiesEv, 
                       __ZNK10appledepth16JasperPointCloud12cameraPixelsEv, __ZNK10appledepth16JasperPointCloud14getBaseAddressEv, 
                       __ZNK10appledepth16JasperPointCloud18euclideanDistancesEv, 
                       __ZNK10appledepth16JasperPointCloud19projectJasperPointsE10ADRotation6CGRect15ADSpotsEchoModefffffP10__CVBufferb, 
                       __ZNK10appledepth16JasperPointCloud19signalToNoiseRatiosEv, 
                       __ZNK10appledepth16JasperPointCloud23undistortedCameraPixelsEv, 
                       __ZNK10appledepth16JasperPointCloud30createDictionaryRepresentationEv, 
                       __ZNK10appledepth16JasperPointCloud5flagsEv, __ZNK10appledepth16JasperPointCloud6lengthEv, 
                       __ZNK10appledepth16JasperPointCloud6pointsEv, __ZNK10appledepth16JasperPointCloud7bankIdsEv, 
                       __ZNK10appledepth16JasperPointCloud7echoIdsEv, __ZNK10appledepth16JasperPointCloud7spotIdsEv, 
                       __ZNK10appledepth16JasperPointCloud8capacityEv ]
  - targets:         [ arm64-ios, arm64e-ios, armv7-ios, armv7s-ios ]
    symbols:         [ _ADExecutorCalibrationAttachmentName, _AppleDepthRuntimeAPIVersion, 
                       _AppleDepthRuntimeVersionString, _AppleDepthVersionNumber, 
                       _AppleDepthVersionString, _kADCustomModelsDirectoryPath, _kADEspressoBufferIDAnglesVector, 
                       _kADEspressoBufferIDErrorsVector, _kADEspressoBufferIDInputAuxColor, 
                       _kADEspressoBufferIDInputColor, _kADEspressoBufferIDInputDisparity, 
                       _kADEspressoBufferIDInputJasper, _kADEspressoBufferIDInputOpaqueFeatures, 
                       _kADEspressoBufferIDInputRefColor, _kADEspressoBufferIDOutputAlphaMap, 
                       _kADEspressoBufferIDOutputConfidence, _kADEspressoBufferIDOutputDepth, 
                       _kADEspressoBufferIDOutputDisparity, _kADEspressoBufferIDOutputNormals, 
                       _kADEspressoBufferIDOutputOpaqueFeatures, _kADNetworkIDJasperColor, 
                       _kADNetworkIDMonocular ]
    objc-classes:    [ ADAggregationParameters, ADCameraCalibration, ADDefaults, 
                       ADEspressoBuffer, ADEspressoImageDescriptor, ADEspressoInferenceDescriptor, 
                       ADEspressoJasperColorInferenceDescriptor, ADEspressoMonocularInferenceDescriptor, 
                       ADEspressoRunner, ADExecutor, ADExecutorParameters, ADImageDescriptor, 
                       ADJasperColorExecutor, ADJasperColorExecutorParameters, ADJasperColorPipeline, 
                       ADJasperColorPipelineParameters, ADJasperPointCloud, ADJasperPointCloudFilterParamaters, 
                       ADLKTExecutor, ADLKTOpticalFlow, ADLKTTexturesDescriptor, 
                       ADMagnificationForRadiusLensDistortionModel, ADMillimeterRadiusPairsLensDistortionModel, 
                       ADMonocularExecutor, ADMonocularExecutorParameters, ADMonocularPipeline, 
                       ADMonocularPipelineParameters, ADMutableCameraCalibration, 
                       ADMutableJasperPointCloud, ADNetworkProvider, ADNilDistortionModel, 
                       ADNormals, ADNormalsBuffer, ADPipelineParameters, ADPointCloudAggregator, 
                       ADPolynomialsLensDistortionModel, ADReprojection, ADTimeProfiler, 
                       ADUtils, DFMetalUtils ]
    objc-ivars:      [ ADCameraCalibration._cameraToPlatformTransform, ADCameraCalibration._distortionModel, 
                       ADCameraCalibration._intrinsicMatrix, ADCameraCalibration._pixelSize, 
                       ADCameraCalibration._referenceDimensions, ADExecutor._engineType, 
                       ADExecutor._espressoRunner, ADExecutor._inputOrientation, 
                       ADExecutor._inputRoi, ADExecutor._layout, ADExecutor._rotationConstant, 
                       ADExecutor._rotationPreference, ADJasperPointCloud._dataBuffer, 
                       ADJasperPointCloud._pc, ADNormalsBuffer._vertices ]
...
